; Function Attrs: mustprogress uwtable
define hidden noundef zeroext i1 @_ZN3euf13th_euf_solver9add_unitsERK7svectorIN3sat7literalEjE(ptr noundef nonnull align 8 dereferenceable(108) %this, ptr nocapture noundef nonnull readonly align 8 dereferenceable(8) %lits) local_unnamed_addr #3 align 2 {
entry:
  %0 = load ptr, ptr %lits, align 8
  %cmp.i.i = icmp eq ptr %0, null
  br i1 %cmp.i.i, label %for.end, label %_ZNK6vectorIN3sat7literalELb0EjE3endEv.exit

_ZNK6vectorIN3sat7literalELb0EjE3endEv.exit:      ; preds = %entry
  %arrayidx.i.i = getelementptr inbounds i8, ptr %0, i64 -4
  %1 = load i32, ptr %arrayidx.i.i, align 4
  %2 = zext i32 %1 to i64
  %add.ptr.i = getelementptr inbounds %"class.sat::literal", ptr %0, i64 %2
  %cmp.not4 = icmp eq i32 %1, 0
  br i1 %cmp.not4, label %for.end, label %for.body

for.body:                                         ; preds = %_ZNK6vectorIN3sat7literalELb0EjE3endEv.exit, %for.body
  %is_new.06 = phi i8 [ %spec.select, %for.body ], [ 0, %_ZNK6vectorIN3sat7literalELb0EjE3endEv.exit ]
  %__begin1.05 = phi ptr [ %incdec.ptr, %for.body ], [ %0, %_ZNK6vectorIN3sat7literalELb0EjE3endEv.exit ]
  %lit.sroa.0.0.copyload = load i32, ptr %__begin1.05, align 4
  %call3 = tail call noundef zeroext i1 @_ZN3euf13th_euf_solver8add_unitEN3sat7literalEPKNS_13th_proof_hintE(ptr noundef nonnull align 8 dereferenceable(108) %this, i32 %lit.sroa.0.0.copyload, ptr noundef null)
  %spec.select = select i1 %call3, i8 1, i8 %is_new.06
  %incdec.ptr = getelementptr inbounds i8, ptr %__begin1.05, i64 4
  %cmp.not = icmp eq ptr %incdec.ptr, %add.ptr.i
  br i1 %cmp.not, label %for.end.loopexit, label %for.body

for.end.loopexit:                                 ; preds = %for.body
  %3 = and i8 %spec.select, 1
  %4 = icmp ne i8 %3, 0
  br label %for.end

for.end:                                          ; preds = %entry, %for.end.loopexit, %_ZNK6vectorIN3sat7literalELb0EjE3endEv.exit
  %is_new.0.lcssa = phi i1 [ false, %_ZNK6vectorIN3sat7literalELb0EjE3endEv.exit ], [ %4, %for.end.loopexit ], [ false, %entry ]
  ret i1 %is_new.0.lcssa
}